; Function Attrs: nounwind uwtable
define dso_local i64 @hashfloat4extended(ptr noundef readonly captures(none) %0) local_unnamed_addr #0 {
  %2 = alloca double, align 8
  %3 = getelementptr inbounds nuw i8, ptr %0, i64 32
  %4 = load i64, ptr %3, align 8
  %5 = trunc i64 %4 to i32
  %6 = bitcast i32 %5 to float
  %7 = getelementptr inbounds nuw i8, ptr %0, i64 48
  %8 = load i64, ptr %7, align 8
  call void @llvm.lifetime.start.p0(i64 8, ptr nonnull %2) #6
  %9 = fcmp oeq float %6, 0.000000e+00
  br i1 %9, label %14, label %10

10:                                               ; preds = %1
  %11 = fpext float %6 to double
  %12 = fcmp uno float %6, 0.000000e+00
  %storemerge = select i1 %12, double 0x7FF8000000000000, double %11
  store double %storemerge, ptr %2, align 8
  %13 = call i64 @hash_bytes_extended(ptr noundef nonnull %2, i32 noundef 8, i64 noundef %8) #6
  br label %14

14:                                               ; preds = %1, %10
  %.0 = phi i64 [ %13, %10 ], [ %8, %1 ]
  call void @llvm.lifetime.end.p0(i64 8, ptr nonnull %2) #6
  ret i64 %.0
}